target datalayout = "e-m:e-p270:32:32-p271:32:32-p272:64:64-i64:64-i128:128-f80:128-n8:16:32:64-S128"
target triple = "x86_64-pc-linux-gnu"

%struct.strbuf = type { i64, i64, ptr }

@strbuf_slopbuf = external global [0 x i8], align 1
@.str.47 = private unnamed_addr constant [11 x i8] c"./strbuf.h\00", align 1
@.str.48 = private unnamed_addr constant [30 x i8] c"strbuf_setlen() beyond buffer\00", align 1

; Function Attrs: inlinehint nounwind uwtable
define internal void @strbuf_setlen(ptr noundef %0, i64 noundef %1) #4 {
  %3 = alloca ptr, align 8
  %4 = alloca i64, align 8
  store ptr %0, ptr %3, align 8, !tbaa !44
  store i64 %1, ptr %4, align 8, !tbaa !21
  %5 = load i64, ptr %4, align 8, !tbaa !21
  %6 = load ptr, ptr %3, align 8, !tbaa !44
  %7 = getelementptr inbounds nuw %struct.strbuf, ptr %6, i32 0, i32 0
  %8 = load i64, ptr %7, align 8, !tbaa !90
  %9 = icmp ne i64 %8, 0
  br i1 %9, label %10, label %15

10:                                               ; preds = %2
  %11 = load ptr, ptr %3, align 8, !tbaa !44
  %12 = getelementptr inbounds nuw %struct.strbuf, ptr %11, i32 0, i32 0
  %13 = load i64, ptr %12, align 8, !tbaa !90
  %14 = sub i64 %13, 1
  br label %16

15:                                               ; preds = %2
  br label %16

16:                                               ; preds = %15, %10
  %17 = phi i64 [ %14, %10 ], [ 0, %15 ]
  %18 = icmp ugt i64 %5, %17
  br i1 %18, label %19, label %20

19:                                               ; preds = %16
  call void (ptr, i32, ptr, ...) @BUG_fl(ptr noundef @.str.47, i32 noundef 167, ptr noundef @.str.48) #9
  unreachable

20:                                               ; preds = %16
  %21 = load i64, ptr %4, align 8, !tbaa !21
  %22 = load ptr, ptr %3, align 8, !tbaa !44
  %23 = getelementptr inbounds nuw %struct.strbuf, ptr %22, i32 0, i32 1
  store i64 %21, ptr %23, align 8, !tbaa !74
  %24 = load ptr, ptr %3, align 8, !tbaa !44
  %25 = getelementptr inbounds nuw %struct.strbuf, ptr %24, i32 0, i32 2
  %26 = load ptr, ptr %25, align 8, !tbaa !73
  %27 = icmp ne ptr %26, @strbuf_slopbuf
  br i1 %27, label %28, label %34

28:                                               ; preds = %20
  %29 = load ptr, ptr %3, align 8, !tbaa !44
  %30 = getelementptr inbounds nuw %struct.strbuf, ptr %29, i32 0, i32 2
  %31 = load ptr, ptr %30, align 8, !tbaa !73
  %32 = load i64, ptr %4, align 8, !tbaa !21
  %33 = getelementptr inbounds nuw i8, ptr %31, i64 %32
  store i8 0, ptr %33, align 1, !tbaa !34
  br label %35

34:                                               ; preds = %20
  br label %35

35:                                               ; preds = %34, %28
  ret void
}

; Function Attrs: nounwind uwtable
define internal void @remove_cr_after(ptr noundef %0, i64 noundef %1) #0 {
  %3 = alloca ptr, align 8
  %4 = alloca i64, align 8
  %5 = alloca i64, align 8
  %6 = alloca i64, align 8
  store ptr %0, ptr %3, align 8, !tbaa !44
  store i64 %1, ptr %4, align 8, !tbaa !21
  call void @llvm.lifetime.start.p0(i64 8, ptr %5) #8
  call void @llvm.lifetime.start.p0(i64 8, ptr %6) #8
  %7 = load i64, ptr %4, align 8, !tbaa !21
  store i64 %7, ptr %6, align 8, !tbaa !21
  store i64 %7, ptr %5, align 8, !tbaa !21
  br label %8

8:                                                ; preds = %43, %2
  %9 = load i64, ptr %5, align 8, !tbaa !21
  %10 = load ptr, ptr %3, align 8, !tbaa !44
  %11 = getelementptr inbounds nuw %struct.strbuf, ptr %10, i32 0, i32 1
  %12 = load i64, ptr %11, align 8, !tbaa !74
  %13 = icmp ult i64 %9, %12
  br i1 %13, label %14, label %46

14:                                               ; preds = %8
  %15 = load ptr, ptr %3, align 8, !tbaa !44
  %16 = getelementptr inbounds nuw %struct.strbuf, ptr %15, i32 0, i32 2
  %17 = load ptr, ptr %16, align 8, !tbaa !73
  %18 = load i64, ptr %5, align 8, !tbaa !21
  %19 = getelementptr inbounds nuw i8, ptr %17, i64 %18
  %20 = load i8, ptr %19, align 1, !tbaa !34
  %21 = sext i8 %20 to i32
  %22 = icmp ne i32 %21, 13
  br i1 %22, label %23, label %42

23:                                               ; preds = %14
  %24 = load i64, ptr %5, align 8, !tbaa !21
  %25 = load i64, ptr %6, align 8, !tbaa !21
  %26 = icmp ne i64 %24, %25
  br i1 %26, label %27, label %39

27:                                               ; preds = %23
  %28 = load ptr, ptr %3, align 8, !tbaa !44
  %29 = getelementptr inbounds nuw %struct.strbuf, ptr %28, i32 0, i32 2
  %30 = load ptr, ptr %29, align 8, !tbaa !73
  %31 = load i64, ptr %5, align 8, !tbaa !21
  %32 = getelementptr inbounds nuw i8, ptr %30, i64 %31
  %33 = load i8, ptr %32, align 1, !tbaa !34
  %34 = load ptr, ptr %3, align 8, !tbaa !44
  %35 = getelementptr inbounds nuw %struct.strbuf, ptr %34, i32 0, i32 2
  %36 = load ptr, ptr %35, align 8, !tbaa !73
  %37 = load i64, ptr %6, align 8, !tbaa !21
  %38 = getelementptr inbounds nuw i8, ptr %36, i64 %37
  store i8 %33, ptr %38, align 1, !tbaa !34
  br label %39

39:                                               ; preds = %27, %23
  %40 = load i64, ptr %6, align 8, !tbaa !21
  %41 = add i64 %40, 1
  store i64 %41, ptr %6, align 8, !tbaa !21
  br label %42

42:                                               ; preds = %39, %14
  br label %43

43:                                               ; preds = %42
  %44 = load i64, ptr %5, align 8, !tbaa !21
  %45 = add i64 %44, 1
  store i64 %45, ptr %5, align 8, !tbaa !21
  br label %8, !llvm.loop !89

46:                                               ; preds = %8
  %47 = load ptr, ptr %3, align 8, !tbaa !44
  %48 = load i64, ptr %6, align 8, !tbaa !21
  call void @strbuf_setlen(ptr noundef %47, i64 noundef %48)
  call void @llvm.lifetime.end.p0(i64 8, ptr %6) #8
  call void @llvm.lifetime.end.p0(i64 8, ptr %5) #8
  ret void
}