; Function Attrs: nounwind uwtable
define internal fastcc void @remove_cr_after(ptr noundef captures(none) %0, i64 noundef %1) unnamed_addr #2 {
  %3 = getelementptr inbounds nuw i8, ptr %0, i64 8
  %4 = load i64, ptr %3, align 8, !tbaa !70
  %5 = icmp ult i64 %1, %4
  br i1 %5, label %.lr.ph, label %._crit_edge

.lr.ph:                                           ; preds = %2
  %6 = getelementptr inbounds nuw i8, ptr %0, i64 16
  br label %7

7:                                                ; preds = %.lr.ph, %17
  %.pre18 = phi i64 [ %4, %.lr.ph ], [ %.pre19, %17 ]
  %8 = phi i64 [ %4, %.lr.ph ], [ %18, %17 ]
  %.017 = phi i64 [ %1, %.lr.ph ], [ %.1, %17 ]
  %.01416 = phi i64 [ %1, %.lr.ph ], [ %19, %17 ]
  %9 = load ptr, ptr %6, align 8, !tbaa !60
  %10 = getelementptr inbounds nuw i8, ptr %9, i64 %.01416
  %11 = load i8, ptr %10, align 1, !tbaa !33
  %.not = icmp eq i8 %11, 13
  br i1 %.not, label %17, label %12

12:                                               ; preds = %7
  %.not15 = icmp eq i64 %.01416, %.017
  br i1 %.not15, label %15, label %13

13:                                               ; preds = %12
  %14 = getelementptr inbounds nuw i8, ptr %9, i64 %.017
  store i8 %11, ptr %14, align 1, !tbaa !33
  %.pre.pre = load i64, ptr %3, align 8, !tbaa !70
  br label %15

15:                                               ; preds = %13, %12
  %.pre = phi i64 [ %.pre.pre, %13 ], [ %.pre18, %12 ]
  %16 = add i64 %.017, 1
  br label %17

17:                                               ; preds = %7, %15
  %.pre19 = phi i64 [ %.pre, %15 ], [ %.pre18, %7 ]
  %18 = phi i64 [ %.pre, %15 ], [ %8, %7 ]
  %.1 = phi i64 [ %16, %15 ], [ %.017, %7 ]
  %19 = add nuw i64 %.01416, 1
  %20 = icmp ult i64 %19, %18
  br i1 %20, label %7, label %._crit_edge, !llvm.loop !71

._crit_edge:                                      ; preds = %17, %2
  %.0.lcssa = phi i64 [ %1, %2 ], [ %.1, %17 ]
  %21 = load i64, ptr %0, align 8, !tbaa !72
  %spec.select.i = tail call i64 @llvm.usub.sat.i64(i64 %21, i64 1)
  %22 = icmp ugt i64 %.0.lcssa, %spec.select.i
  br i1 %22, label %23, label %24

23:                                               ; preds = %._crit_edge
  tail call void (ptr, i32, ptr, ...) @BUG_fl(ptr noundef nonnull @.str.47, i32 noundef 167, ptr noundef nonnull @.str.48) #16
  unreachable

24:                                               ; preds = %._crit_edge
  store i64 %.0.lcssa, ptr %3, align 8, !tbaa !70
  %25 = getelementptr inbounds nuw i8, ptr %0, i64 16
  %26 = load ptr, ptr %25, align 8, !tbaa !60
  %.not9.i = icmp eq ptr %26, @strbuf_slopbuf
  br i1 %.not9.i, label %strbuf_setlen.exit, label %27

27:                                               ; preds = %24
  %28 = getelementptr inbounds nuw i8, ptr %26, i64 %.0.lcssa
  store i8 0, ptr %28, align 1, !tbaa !33
  br label %strbuf_setlen.exit

strbuf_setlen.exit:                               ; preds = %24, %27
  ret void
}